; Function Attrs: mustprogress nofree norecurse nosync nounwind willreturn memory(readwrite, inaccessiblemem: none) uwtable
define noundef zeroext i1 @_ZN3net16SpdyFrameBuilder18WriteStringPiece32ERKN4base16BasicStringPieceINSt7__cxx1112basic_stringIcSt11char_traitsIcESaIcEEEEE(ptr noundef nonnull align 8 captures(none) dereferenceable(36) %0, ptr noundef nonnull readonly align 8 captures(none) dereferenceable(16) %1) local_unnamed_addr #8 align 2 {
  %3 = getelementptr inbounds nuw i8, ptr %1, i64 8
  %4 = getelementptr inbounds nuw i8, ptr %0, i64 24
  %5 = load i64, ptr %4, align 8, !tbaa !19
  %6 = getelementptr inbounds nuw i8, ptr %0, i64 16
  %7 = load i64, ptr %6, align 8, !tbaa !20
  %8 = add i64 %5, 4
  %9 = add i64 %8, %7
  %10 = getelementptr inbounds nuw i8, ptr %0, i64 8
  %11 = load i64, ptr %10, align 8, !tbaa !8
  %.not.i.i.not = icmp ugt i64 %9, %11
  br i1 %.not.i.i.not, label %_ZN3net16SpdyFrameBuilder11WriteUInt32Ej.exit, label %_ZNK3net16SpdyFrameBuilder8CanWriteEm.exit.i.i.i

_ZNK3net16SpdyFrameBuilder8CanWriteEm.exit.i.i.i: ; preds = %2
  %12 = load i64, ptr %3, align 8, !tbaa !77
  %13 = trunc i64 %12 to i32
  %14 = tail call noundef i32 @llvm.bswap.i32(i32 %13)
  %15 = load ptr, ptr %0, align 8
  %16 = getelementptr inbounds nuw i8, ptr %15, i64 %5
  %17 = getelementptr inbounds nuw i8, ptr %16, i64 %7
  store i32 %14, ptr %17, align 1
  %18 = load i64, ptr %4, align 8, !tbaa !19
  %19 = load i64, ptr %6, align 8, !tbaa !20
  %20 = add i64 %19, 4
  %21 = add i64 %20, %18
  %22 = load i64, ptr %10, align 8, !tbaa !8
  %.not.i9.i.i = icmp ugt i64 %21, %22
  br i1 %.not.i9.i.i, label %24, label %23

23:                                               ; preds = %_ZNK3net16SpdyFrameBuilder8CanWriteEm.exit.i.i.i
  store i64 %20, ptr %6, align 8, !tbaa !20
  br label %24

24:                                               ; preds = %_ZNK3net16SpdyFrameBuilder8CanWriteEm.exit.i.i.i, %23
  %25 = phi i64 [ %19, %_ZNK3net16SpdyFrameBuilder8CanWriteEm.exit.i.i.i ], [ %20, %23 ]
  %26 = load ptr, ptr %1, align 8, !tbaa !79
  %27 = load i64, ptr %3, align 8, !tbaa !77
  %28 = and i64 %27, 4294967295
  %29 = and i64 %27, 4278190080
  %.not = icmp eq i64 %29, 0
  br i1 %.not, label %_ZNK3net16SpdyFrameBuilder8CanWriteEm.exit.i, label %_ZN3net16SpdyFrameBuilder11WriteUInt32Ej.exit

_ZNK3net16SpdyFrameBuilder8CanWriteEm.exit.i:     ; preds = %24
  %30 = add i64 %18, %28
  %31 = add i64 %30, %25
  %.not.i = icmp ugt i64 %31, %22
  br i1 %.not.i, label %_ZN3net16SpdyFrameBuilder11WriteUInt32Ej.exit, label %_ZNK3net16SpdyFrameBuilder8CanWriteEm.exit.i.i

_ZNK3net16SpdyFrameBuilder8CanWriteEm.exit.i.i:   ; preds = %_ZNK3net16SpdyFrameBuilder8CanWriteEm.exit.i
  %32 = load ptr, ptr %0, align 8
  %33 = getelementptr inbounds nuw i8, ptr %32, i64 %18
  %34 = getelementptr inbounds nuw i8, ptr %33, i64 %25
  tail call void @llvm.memcpy.p0.p0.i64(ptr align 1 %34, ptr readonly align 1 %26, i64 %28, i1 false)
  %35 = load i64, ptr %4, align 8, !tbaa !19
  %36 = load i64, ptr %6, align 8, !tbaa !20
  %37 = add i64 %36, %28
  %38 = add i64 %37, %35
  %39 = load i64, ptr %10, align 8, !tbaa !8
  %.not.i9.i = icmp ugt i64 %38, %39
  br i1 %.not.i9.i, label %_ZN3net16SpdyFrameBuilder11WriteUInt32Ej.exit, label %40

40:                                               ; preds = %_ZNK3net16SpdyFrameBuilder8CanWriteEm.exit.i.i
  store i64 %37, ptr %6, align 8, !tbaa !20
  br label %_ZN3net16SpdyFrameBuilder11WriteUInt32Ej.exit

_ZN3net16SpdyFrameBuilder11WriteUInt32Ej.exit:    ; preds = %40, %_ZNK3net16SpdyFrameBuilder8CanWriteEm.exit.i.i, %_ZNK3net16SpdyFrameBuilder8CanWriteEm.exit.i, %24, %2
  %.0 = phi i1 [ false, %2 ], [ false, %_ZNK3net16SpdyFrameBuilder8CanWriteEm.exit.i ], [ true, %_ZNK3net16SpdyFrameBuilder8CanWriteEm.exit.i.i ], [ true, %40 ], [ false, %24 ]
  ret i1 %.0
}